Certificate:
    Data:
        Version: 3 (0x2)
        Serial Number: 1 (0x1)
    Signature Algorithm: sha256WithRSAEncryption
        Issuer: C=FR, ST=Radius, L=Somewhere, O=Example Inc./emailAddress=admin@example.org, CN=Example Certificate Authority
        Validity
            Not Before: Oct 25 03:07:48 2016 GMT
            Not After : Dec 24 03:07:48 2016 GMT
        Subject: C=FR, ST=Radius, O=Example Inc., CN=Example Server Certificate/emailAddress=admin@example.org
        Subject Public Key Info:
            Public Key Algorithm: rsaEncryption
                Public-Key: (2048 bit)
                Modulus:
                    00:b5:2a:fc:0b:e7:34:6d:26:34:ba:2d:f5:83:16:
                    ec:22:cd:96:2e:43:98:49:51:33:94:5c:92:8a:d7:
                    46:bf:2e:86:ed:1b:46:0d:d8:d3:34:f0:62:e0:a4:
                    a4:d0:c9:2f:36:85:b2:5a:64:65:06:27:e3:1e:07:
                    4a:34:8e:28:78:83:02:d7:58:73:9c:ef:a8:9c:1d:
                    23:ad:66:33:a6:d9:9e:6c:89:30:51:b6:24:54:87:
                    f4:b9:b9:6e:56:88:ed:50:7c:bd:35:43:76:c8:b6:
                    a7:7a:d1:ed:10:58:5b:1a:5c:50:24:78:2b:e6:7a:
                    c2:46:e0:0d:02:49:0c:5d:e6:ba:0e:27:45:60:38:
                    8f:40:65:86:ab:89:b0:00:3e:38:99:6d:8a:8e:2f:
                    bd:60:1e:0a:f3:99:6e:dd:bf:93:2d:92:16:8e:9c:
                    f2:43:04:79:6c:de:19:d1:41:51:5e:aa:e6:01:98:
                    d2:43:a2:a1:ec:f0:bc:64:41:e5:b6:66:b6:01:7e:
                    c7:8f:19:fe:86:63:e1:2b:7e:87:c5:ad:27:61:c6:
                    45:dc:69:a2:2a:b2:ee:a0:4f:3e:01:81:dd:b1:6f:
                    eb:d0:98:94:21:05:4f:15:f6:9b:9a:36:e2:ab:4c:
                    15:b4:e2:84:b2:cf:de:4e:f9:6c:b4:6b:70:0a:fc:
                    0b:fd
                Exponent: 65537 (0x10001)
        X509v3 extensions:
            X509v3 Extended Key Usage: 
                TLS Web Server Authentication
            X509v3 CRL Distribution Points: 

                Full Name:
                  URI:http://www.example.com/example_ca.crl

    Signature Algorithm: sha256WithRSAEncryption
         dd:d2:e2:86:bd:ee:a8:83:01:2d:41:1c:35:81:70:cb:af:d8:
         21:a0:4f:b2:c7:ee:91:c6:c9:f4:e5:3c:85:bf:69:c8:e0:57:
         a0:0c:9d:ac:d5:1e:b3:8e:12:27:a6:f1:d7:3b:ce:61:26:e8:
         24:ba:4a:f7:9b:5a:e8:97:ee:c6:5e:4b:c3:e7:43:f2:51:a4:
         48:29:6d:94:9f:cf:7b:36:ac:3f:eb:b9:10:a2:2f:a0:67:f5:
         46:69:b7:22:c3:3d:9f:d2:e2:ae:2b:22:8a:1c:dc:b7:62:bc:
         ed:09:e5:09:3d:62:4c:8e:ec:4c:27:4a:0d:74:e6:b9:ed:64:
         81:37:98:63:e9:02:06:99:88:68:5f:8f:98:3e:b7:c4:69:0d:
         75:e4:e1:bb:31:a9:66:f9:a0:d9:95:9e:e3:dd:d5:98:19:69:
         3c:c9:dd:06:59:98:4f:f4:2a:5f:0b:07:84:4c:bc:52:af:9c:
         de:c6:12:1d:43:b7:5f:37:87:a6:46:24:73:bc:72:40:99:68:
         e4:c3:b1:11:af:fd:c8:33:43:56:5e:ed:d3:73:fc:b0:b8:db:
         36:e5:fe:4c:b7:e0:6c:36:58:00:ad:2a:31:cf:bb:e5:5b:be:
         1e:6c:48:34:28:5f:03:e8:f1:bb:32:51:e8:0d:03:c6:f3:1b:
         3a:d4:4d:58
-----BEGIN CERTIFICATE-----
MIID2jCCAsKgAwIBAgIBATANBgkqhkiG9w0BAQsFADCBkzELMAkGA1UEBhMCRlIx
DzANBgNVBAgTBlJhZGl1czESMBAGA1UEBxMJU29tZXdoZXJlMRUwEwYDVQQKEwxF
eGFtcGxlIEluYy4xIDAeBgkqhkiG9w0BCQEWEWFkbWluQGV4YW1wbGUub3JnMSYw
JAYDVQQDEx1FeGFtcGxlIENlcnRpZmljYXRlIEF1dGhvcml0eTAeFw0xNjEwMjUw
MzA3NDhaFw0xNjEyMjQwMzA3NDhaMHwxCzAJBgNVBAYTAkZSMQ8wDQYDVQQIEwZS
YWRpdXMxFTATBgNVBAoTDEV4YW1wbGUgSW5jLjEjMCEGA1UEAxMaRXhhbXBsZSBT
ZXJ2ZXIgQ2VydGlmaWNhdGUxIDAeBgkqhkiG9w0BCQEWEWFkbWluQGV4YW1wbGUu
b3JnMIIBIjANBgkqhkiG9w0BAQEFAAOCAQ8AMIIBCgKCAQEAtSr8C+c0bSY0ui31
gxbsIs2WLkOYSVEzlFySitdGvy6G7RtGDdjTNPBi4KSk0MkvNoWyWmRlBifjHgdK
NI4oeIMC11hznO+onB0jrWYzptmebIkwUbYkVIf0ubluVojtUHy9NUN2yLanetHt
EFhbGlxQJHgr5nrCRuANAkkMXea6DidFYDiPQGWGq4mwAD44mW2Kji+9YB4K85lu
3b+TLZIWjpzyQwR5bN4Z0UFRXqrmAZjSQ6Kh7PC8ZEHltma2AX7Hjxn+hmPhK36H
xa0nYcZF3GmiKrLuoE8+AYHdsW/r0JiUIQVPFfabmjbiq0wVtOKEss/eTvlstGtw
CvwL/QIDAQABo08wTTATBgNVHSUEDDAKBggrBgEFBQcDATA2BgNVHR8ELzAtMCug
KaAnhiVodHRwOi8vd3d3LmV4YW1wbGUuY29tL2V4YW1wbGVfY2EuY3JsMA0GCSqG
SIb3DQEBCwUAA4IBAQDd0uKGve6ogwEtQRw1gXDLr9ghoE+yx+6Rxsn05TyFv2nI
4FegDJ2s1R6zjhInpvHXO85hJugkukr3m1rol+7GXkvD50PyUaRIKW2Un897Nqw/
67kQoi+gZ/VGabciwz2f0uKuKyKKHNy3YrztCeUJPWJMjuxMJ0oNdOa57WSBN5hj
6QIGmYhoX4+YPrfEaQ115OG7Malm+aDZlZ7j3dWYGWk8yd0GWZhP9CpfCweETLxS
r5zexhIdQ7dfN4emRiRzvHJAmWjkw7ERr/3IM0NWXu3Tc/ywuNs25f5Mt+BsNlgA
rSoxz7vlW74ebEg0KF8D6PG7MlHoDQPG8xs61E1Y
-----END CERTIFICATE-----
